target datalayout = "e-m:e-p270:32:32-p271:32:32-p272:64:64-i64:64-i128:128-f80:128-n8:16:32:64-S128"
target triple = "x86_64-pc-linux-gnu"

%struct._zend_executor_globals = type { %struct._zval_struct, %struct._zval_struct, [32 x ptr], ptr, ptr, %struct._zend_array, %struct._zend_array, ptr, i32, i32, ptr, ptr, ptr, ptr, ptr, ptr, i64, ptr, ptr, i32, i32, i64, i32, i32, i32, i8, i8, %struct.zend_atomic_bool_s, %struct.zend_atomic_bool_s, ptr, i64, ptr, ptr, %struct._zend_array, %struct._zend_array, i32, i8, %struct._zval_struct, %struct._zval_struct, %struct._zend_stack, %struct._zend_stack, %struct._zend_stack, ptr, i32, i32, i64, ptr, ptr, ptr, %struct._zend_objects_store, ptr, ptr, ptr, [3 x %struct._zend_op], ptr, i8, i8, i64, i32, i32, ptr, [16 x %struct._HashTableIterator], ptr, %union._zend_function, %struct._zend_op, %struct._zend_array, i64, %struct.zend_get_gc_buffer, ptr, ptr, ptr, i64, i8, i32, ptr, ptr, i64, %struct._zend_call_stack, i64, i64, [6 x ptr] }
%struct.zend_atomic_bool_s = type { i8 }
%struct._zval_struct = type { %union._zend_value, %union.anon, %union.anon.2 }
%union._zend_value = type { i64 }
%union.anon = type { i32 }
%union.anon.2 = type { i32 }
%struct._zend_stack = type { i32, i32, i32, ptr }
%struct._zend_objects_store = type { ptr, i32, i32, i32 }
%struct._HashTableIterator = type { ptr, i32, i32 }
%union._zend_function = type { %struct._zend_op_array }
%struct._zend_op_array = type { i8, [3 x i8], i32, ptr, ptr, ptr, i32, i32, ptr, ptr, ptr, ptr, i32, i32, i32, i32, ptr, ptr, ptr, ptr, ptr, i32, i32, ptr, ptr, ptr, i32, i32, i32, i32, ptr, ptr, [6 x ptr] }
%struct._zend_op = type { ptr, %union._znode_op, %union._znode_op, %union._znode_op, i32, i32, i8, i8, i8, i8 }
%union._znode_op = type { i32 }
%struct._zend_array = type { %struct._zend_refcounted_h, %union.anon.4, i32, %union.anon.6, i32, i32, i32, i32, i64, ptr }
%struct._zend_refcounted_h = type { i32, %union.anon.3 }
%union.anon.3 = type { i32 }
%union.anon.4 = type { i32 }
%union.anon.6 = type { ptr }
%struct.zend_get_gc_buffer = type { ptr, ptr, ptr }
%struct._zend_call_stack = type { ptr, i64 }
%struct._zend_ini_entry = type { ptr, ptr, ptr, ptr, ptr, ptr, ptr, ptr, i32, i8, i8, i8 }

@executor_globals = external global %struct._zend_executor_globals, align 8
@zend_empty_string = external global ptr, align 8

; Function Attrs: nounwind uwtable
define ptr @zend_ini_str_ex(ptr noundef %0, i64 noundef %1, i1 noundef zeroext %2, ptr noundef %3) #0 {
  %5 = alloca ptr, align 8
  %6 = alloca ptr, align 8
  %7 = alloca ptr, align 8
  %8 = alloca i64, align 8
  %9 = alloca ptr, align 8
  %10 = alloca ptr, align 8
  %11 = alloca ptr, align 8
  %12 = alloca i64, align 8
  %13 = alloca i8, align 1
  %14 = alloca ptr, align 8
  %15 = alloca ptr, align 8
  store ptr %0, ptr %11, align 8
  store i64 %1, ptr %12, align 8
  %16 = zext i1 %2 to i8
  store i8 %16, ptr %13, align 1
  store ptr %3, ptr %14, align 8
  %17 = load ptr, ptr getelementptr inbounds (%struct._zend_executor_globals, ptr @executor_globals, i32 0, i32 46), align 8
  %18 = load ptr, ptr %11, align 8
  %19 = load i64, ptr %12, align 8
  store ptr %17, ptr %6, align 8
  store ptr %18, ptr %7, align 8
  store i64 %19, ptr %8, align 8
  %20 = load ptr, ptr %6, align 8
  %21 = load ptr, ptr %7, align 8
  %22 = load i64, ptr %8, align 8
  %23 = call ptr @zend_hash_str_find(ptr noundef %20, ptr noundef %21, i64 noundef %22) #13
  store ptr %23, ptr %9, align 8
  %24 = load ptr, ptr %9, align 8
  %25 = icmp ne ptr %24, null
  br i1 %25, label %26, label %32

26:                                               ; preds = %4
  %27 = load ptr, ptr %9, align 8
  %28 = load ptr, ptr %27, align 8
  %29 = icmp ne ptr %28, null
  call void @llvm.assume(i1 %29)
  %30 = load ptr, ptr %9, align 8
  %31 = load ptr, ptr %30, align 8
  store ptr %31, ptr %5, align 8
  br label %33

32:                                               ; preds = %4
  store ptr null, ptr %5, align 8
  br label %33

33:                                               ; preds = %32, %26
  %34 = load ptr, ptr %5, align 8
  store ptr %34, ptr %15, align 8
  %35 = load ptr, ptr %15, align 8
  %36 = icmp ne ptr %35, null
  br i1 %36, label %37, label %75

37:                                               ; preds = %33
  %38 = load ptr, ptr %14, align 8
  %39 = icmp ne ptr %38, null
  br i1 %39, label %40, label %42

40:                                               ; preds = %37
  %41 = load ptr, ptr %14, align 8
  store i8 1, ptr %41, align 1
  br label %42

42:                                               ; preds = %40, %37
  %43 = load i8, ptr %13, align 1
  %44 = trunc i8 %43 to i1
  br i1 %44, label %45, label %63

45:                                               ; preds = %42
  %46 = load ptr, ptr %15, align 8
  %47 = getelementptr inbounds %struct._zend_ini_entry, ptr %46, i32 0, i32 11
  %48 = load i8, ptr %47, align 2
  %49 = zext i8 %48 to i32
  %50 = icmp ne i32 %49, 0
  br i1 %50, label %51, label %63

51:                                               ; preds = %45
  %52 = load ptr, ptr %15, align 8
  %53 = getelementptr inbounds %struct._zend_ini_entry, ptr %52, i32 0, i32 6
  %54 = load ptr, ptr %53, align 8
  %55 = icmp ne ptr %54, null
  br i1 %55, label %56, label %60

56:                                               ; preds = %51
  %57 = load ptr, ptr %15, align 8
  %58 = getelementptr inbounds %struct._zend_ini_entry, ptr %57, i32 0, i32 6
  %59 = load ptr, ptr %58, align 8
  br label %61

60:                                               ; preds = %51
  br label %61

61:                                               ; preds = %60, %56
  %62 = phi ptr [ %59, %56 ], [ null, %60 ]
  store ptr %62, ptr %10, align 8
  br label %81

63:                                               ; preds = %45, %42
  %64 = load ptr, ptr %15, align 8
  %65 = getelementptr inbounds %struct._zend_ini_entry, ptr %64, i32 0, i32 5
  %66 = load ptr, ptr %65, align 8
  %67 = icmp ne ptr %66, null
  br i1 %67, label %68, label %72

68:                                               ; preds = %63
  %69 = load ptr, ptr %15, align 8
  %70 = getelementptr inbounds %struct._zend_ini_entry, ptr %69, i32 0, i32 5
  %71 = load ptr, ptr %70, align 8
  br label %73

72:                                               ; preds = %63
  br label %73

73:                                               ; preds = %72, %68
  %74 = phi ptr [ %71, %68 ], [ null, %72 ]
  store ptr %74, ptr %10, align 8
  br label %81

75:                                               ; preds = %33
  %76 = load ptr, ptr %14, align 8
  %77 = icmp ne ptr %76, null
  br i1 %77, label %78, label %80

78:                                               ; preds = %75
  %79 = load ptr, ptr %14, align 8
  store i8 0, ptr %79, align 1
  br label %80

80:                                               ; preds = %78, %75
  store ptr null, ptr %10, align 8
  br label %81

81:                                               ; preds = %80, %73, %61
  %82 = load ptr, ptr %10, align 8
  ret ptr %82
}

; Function Attrs: nounwind uwtable
define ptr @zend_ini_str(ptr noundef %0, i64 noundef %1, i1 noundef zeroext %2) #0 {
  %4 = alloca ptr, align 8
  %5 = alloca ptr, align 8
  %6 = alloca i64, align 8
  %7 = alloca i8, align 1
  %8 = alloca i8, align 1
  %9 = alloca ptr, align 8
  store ptr %0, ptr %5, align 8
  store i64 %1, ptr %6, align 8
  %10 = zext i1 %2 to i8
  store i8 %10, ptr %7, align 1
  store i8 1, ptr %8, align 1
  %11 = load ptr, ptr %5, align 8
  %12 = load i64, ptr %6, align 8
  %13 = load i8, ptr %7, align 1
  %14 = trunc i8 %13 to i1
  %15 = call ptr @zend_ini_str_ex(ptr noundef %11, i64 noundef %12, i1 noundef zeroext %14, ptr noundef %8)
  store ptr %15, ptr %9, align 8
  %16 = load i8, ptr %8, align 1
  %17 = trunc i8 %16 to i1
  br i1 %17, label %19, label %18

18:                                               ; preds = %3
  store ptr null, ptr %4, align 8
  br label %27

19:                                               ; preds = %3
  %20 = load ptr, ptr %9, align 8
  %21 = icmp ne ptr %20, null
  br i1 %21, label %24, label %22

22:                                               ; preds = %19
  %23 = load ptr, ptr @zend_empty_string, align 8
  store ptr %23, ptr %9, align 8
  br label %24

24:                                               ; preds = %22, %19
  br label %25

25:                                               ; preds = %24
  %26 = load ptr, ptr %9, align 8
  store ptr %26, ptr %4, align 8
  br label %27

27:                                               ; preds = %25, %18
  %28 = load ptr, ptr %4, align 8
  ret ptr %28
}