; Function Attrs: nounwind uwtable
define ptr @zend_ini_str(ptr noundef %0, i64 noundef %1, i1 noundef zeroext %2) local_unnamed_addr #0 {
  %4 = load ptr, ptr getelementptr inbounds (%struct._zend_executor_globals, ptr @executor_globals, i64 0, i32 46), align 8
  %5 = tail call ptr @zend_hash_str_find(ptr noundef %4, ptr noundef %0, i64 noundef %1) #20
  %.not.i = icmp eq ptr %5, null
  br i1 %.not.i, label %zend_ini_str_ex.exit, label %6

6:                                                ; preds = %3
  %7 = load ptr, ptr %5, align 8, !nonnull !5, !noundef !5
  br i1 %2, label %8, label %11

8:                                                ; preds = %6
  %9 = getelementptr inbounds i8, ptr %7, i64 70
  %10 = load i8, ptr %9, align 2
  %.not28.i = icmp eq i8 %10, 0
  br i1 %.not28.i, label %11, label %zend_ini_str_ex.exit.sink.split

11:                                               ; preds = %8, %6
  br label %zend_ini_str_ex.exit.sink.split

zend_ini_str_ex.exit.sink.split:                  ; preds = %8, %11
  %.sink8 = phi i64 [ 40, %11 ], [ 48, %8 ]
  %12 = getelementptr inbounds i8, ptr %7, i64 %.sink8
  %13 = load ptr, ptr %12, align 8
  br label %zend_ini_str_ex.exit

zend_ini_str_ex.exit:                             ; preds = %zend_ini_str_ex.exit.sink.split, %3
  %.020.i = phi ptr [ null, %3 ], [ %13, %zend_ini_str_ex.exit.sink.split ]
  %.not7 = icmp eq ptr %.020.i, null
  %14 = load ptr, ptr @zend_empty_string, align 8
  %spec.select = select i1 %.not7, ptr %14, ptr %.020.i
  %.05 = select i1 %.not.i, ptr null, ptr %spec.select
  ret ptr %.05
}